(dp1
S'output'
p2
S"<class 'sqlite3.OperationalError'> no such column: picture.title"
p3
sS'layer'
p4
S'C:\\Users\\monca\\Desktop\\web2py\\applications\\Draw_a_Piece\\controllers/default.py'
p5
sS'code'
p6
S'# -*- coding: utf-8 -*-\n# this file is released under public domain and you can use without limitations\n\n#########################################################################\n## This is a sample controller\n## - index is the default action of any application\n## - user is required for authentication and authorization\n## - download is for downloading files uploaded in the db (does streaming)\n#########################################################################\n\ndef index():\n    """\n    example action using the internationalization operator T and flash\n    rendered by views/default/index.html or views/generic.html\n\n    if you need a simple wiki simply replace the two lines below with:\n    return auth.wiki()\n    """\n    \n    images = db().select(db.picture.ALL)\n    form = SQLFORM(db.picture).process()\n    return dict(message=T(\'Welcome to web2py!\'),images=images, form=form)\n\n\ndef user():\n    """\n    exposes:\n    http://..../[app]/default/user/login\n    http://..../[app]/default/user/logout\n    http://..../[app]/default/user/register\n    http://..../[app]/default/user/profile\n    http://..../[app]/default/user/retrieve_password\n    http://..../[app]/default/user/change_password\n    http://..../[app]/default/user/bulk_register\n    use @auth.requires_login()\n        @auth.requires_membership(\'group name\')\n        @auth.requires_permission(\'read\',\'table name\',record_id)\n    to decorate functions that need access control\n    also notice there is http://..../[app]/appadmin/manage/auth to allow administrator to manage users\n    """\n    return dict(form=auth())\n\ndef show():\n    image = db.picture(request.args(0,cast=int)) or redirect(URL(\'index\'))\n    return dict(image=image)\n@cache.action()\ndef download():\n    """\n    allows downloading of uploaded files\n    http://..../[app]/default/download/[filename]\n    """\n    return response.download(request, db)\n\n\ndef call():\n    """\n    exposes services. for example:\n    http://..../[app]/default/call/jsonrpc\n    decorate with @services.jsonrpc the functions to expose\n    supports xml, json, xmlrpc, jsonrpc, amfrpc, rss, csv\n    """\n    return service()\n\n\n\nresponse._vars=response._caller(index)\n'
p7
sS'snapshot'
p8
(dp9
sS'traceback'
p10
S'Traceback (most recent call last):\n  File "C:\\Users\\monca\\Desktop\\web2py\\gluon\\restricted.py", line 227, in restricted\n    exec ccode in environment\n  File "C:\\Users\\monca\\Desktop\\web2py\\applications\\Draw_a_Piece\\controllers/default.py", line 66, in <module>\n  File "C:\\Users\\monca\\Desktop\\web2py\\gluon\\globals.py", line 412, in <lambda>\n    self._caller = lambda f: f()\n  File "C:\\Users\\monca\\Desktop\\web2py\\applications\\Draw_a_Piece\\controllers/default.py", line 20, in index\n    images = db().select(db.picture.ALL)\n  File "C:\\Users\\monca\\Desktop\\web2py\\gluon\\packages\\dal\\pydal\\objects.py", line 2025, in select\n    return adapter.select(self.query,fields,attributes)\n  File "C:\\Users\\monca\\Desktop\\web2py\\gluon\\packages\\dal\\pydal\\adapters\\sqlite.py", line 124, in select\n    return super(SQLiteAdapter, self).select(query, fields, attributes)\n  File "C:\\Users\\monca\\Desktop\\web2py\\gluon\\packages\\dal\\pydal\\adapters\\base.py", line 1293, in select\n    return self._select_aux(sql,fields,attributes)\n  File "C:\\Users\\monca\\Desktop\\web2py\\gluon\\packages\\dal\\pydal\\adapters\\base.py", line 1250, in _select_aux\n    self.execute(sql)\n  File "C:\\Users\\monca\\Desktop\\web2py\\gluon\\packages\\dal\\pydal\\adapters\\base.py", line 1385, in execute\n    return self.log_execute(*a, **b)\n  File "C:\\Users\\monca\\Desktop\\web2py\\gluon\\packages\\dal\\pydal\\adapters\\base.py", line 1379, in log_execute\n    ret = self.get_cursor().execute(command, *a[1:], **b)\nOperationalError: no such column: picture.title\n'
p11
s.